target datalayout = "e-m:e-p270:32:32-p271:32:32-p272:64:64-i64:64-i128:128-f80:128-n8:16:32:64-S128"
target triple = "x86_64-pc-linux-gnu"

%struct.jpeg_decompress_struct = type { ptr, ptr, ptr, ptr, i32, i32, ptr, i32, i32, i32, i32, i32, i32, i32, double, i32, i32, i32, i32, i32, i32, i32, i32, i32, i32, i32, i32, i32, i32, i32, i32, i32, i32, ptr, i32, i32, i32, i32, i32, ptr, [4 x ptr], [4 x ptr], [4 x ptr], i32, ptr, i32, i32, [16 x i8], [16 x i8], [16 x i8], i32, i32, i8, i8, i8, i16, i16, i32, i8, i32, ptr, i32, i32, i32, i32, i32, ptr, i32, [4 x ptr], i32, i32, i32, [10 x i32], i32, i32, i32, i32, i32, ptr, ptr, ptr, ptr, ptr, ptr, ptr, ptr, ptr, ptr, ptr }
%"struct.mitsuba::jbuf_in_t" = type { %struct.jpeg_source_mgr, ptr, ptr }
%struct.jpeg_source_mgr = type { ptr, i64, ptr, ptr, ptr, ptr, ptr }
%"class.mitsuba::EOFException" = type { %"class.std::runtime_error", i64 }
%"class.std::runtime_error" = type { %"class.std::exception", %"class.std::__1::__libcpp_refstring" }
%"class.std::exception" = type { ptr }
%"class.std::__1::__libcpp_refstring" = type { ptr }

@_ZTIN7mitsuba12EOFExceptionE = linkonce_odr hidden constant { ptr, ptr, ptr } { ptr getelementptr inbounds (ptr, ptr @_ZTVN10__cxxabiv120__si_class_type_infoE, i64 2), ptr @_ZTSN7mitsuba12EOFExceptionE, ptr @_ZTISt13runtime_error }, comdat, align 8

; Function Attrs: noreturn nounwind uwtable
define linkonce_odr hidden void @__clang_call_terminate(ptr noundef %0) #16 comdat {
  %2 = call ptr @__cxa_begin_catch(ptr %0) #29
  call void @_ZSt9terminatev() #31
  unreachable
}

; Function Attrs: mustprogress nounwind uwtable
define linkonce_odr hidden noundef i64 @_ZNK7mitsuba12EOFException6gcountEv(ptr noundef nonnull align 8 dereferenceable(24) %0) #1 comdat align 2 {
  %2 = alloca ptr, align 8
  store ptr %0, ptr %2, align 8
  %3 = load ptr, ptr %2, align 8
  %4 = getelementptr inbounds %"class.mitsuba::EOFException", ptr %3, i32 0, i32 1
  %5 = load i64, ptr %4, align 8
  ret i64 %5
}

; Function Attrs: mustprogress uwtable
define internal noundef i32 @_ZN7mitsubaL22jpeg_fill_input_bufferEP22jpeg_decompress_struct(ptr noundef %0) #0 personality ptr @__gxx_personality_v0 {
  %2 = alloca ptr, align 8
  %3 = alloca ptr, align 8
  %4 = alloca i64, align 8
  %5 = alloca ptr, align 8
  %6 = alloca i32, align 4
  %7 = alloca ptr, align 8
  store ptr %0, ptr %2, align 8
  %8 = load ptr, ptr %2, align 8
  %9 = getelementptr inbounds %struct.jpeg_decompress_struct, ptr %8, i32 0, i32 6
  %10 = load ptr, ptr %9, align 8
  store ptr %10, ptr %3, align 8
  store i64 0, ptr %4, align 8
  %11 = load ptr, ptr %3, align 8
  %12 = getelementptr inbounds %"struct.mitsuba::jbuf_in_t", ptr %11, i32 0, i32 2
  %13 = load ptr, ptr %12, align 8
  %14 = load ptr, ptr %3, align 8
  %15 = getelementptr inbounds %"struct.mitsuba::jbuf_in_t", ptr %14, i32 0, i32 1
  %16 = load ptr, ptr %15, align 8
  %17 = load ptr, ptr %13, align 8
  %18 = getelementptr inbounds ptr, ptr %17, i64 11
  %19 = load ptr, ptr %18, align 8
  invoke void %19(ptr noundef nonnull align 8 dereferenceable(16) %13, ptr noundef %16, i64 noundef 32768)
          to label %20 unwind label %21

20:                                               ; preds = %1
  store i64 32768, ptr %4, align 8
  br label %51

21:                                               ; preds = %1
  %22 = landingpad { ptr, i32 }
          catch ptr @_ZTIN7mitsuba12EOFExceptionE
  %23 = extractvalue { ptr, i32 } %22, 0
  store ptr %23, ptr %5, align 8
  %24 = extractvalue { ptr, i32 } %22, 1
  store i32 %24, ptr %6, align 4
  br label %25

25:                                               ; preds = %21
  %26 = load i32, ptr %6, align 4
  %27 = call i32 @llvm.eh.typeid.for(ptr @_ZTIN7mitsuba12EOFExceptionE) #29
  %28 = icmp eq i32 %26, %27
  br i1 %28, label %29, label %65

29:                                               ; preds = %25
  %30 = load ptr, ptr %5, align 8
  %31 = call ptr @__cxa_begin_catch(ptr %30) #29
  store ptr %31, ptr %7, align 8
  %32 = load ptr, ptr %7, align 8
  %33 = invoke noundef i64 @_ZNK7mitsuba12EOFException6gcountEv(ptr noundef nonnull align 8 dereferenceable(24) %32)
          to label %34 unwind label %46

34:                                               ; preds = %29
  store i64 %33, ptr %4, align 8
  %35 = load i64, ptr %4, align 8
  %36 = icmp eq i64 %35, 0
  br i1 %36, label %37, label %50

37:                                               ; preds = %34
  %38 = load ptr, ptr %3, align 8
  %39 = getelementptr inbounds %"struct.mitsuba::jbuf_in_t", ptr %38, i32 0, i32 1
  %40 = load ptr, ptr %39, align 8
  %41 = getelementptr inbounds i8, ptr %40, i64 0
  store i8 -1, ptr %41, align 1
  %42 = load ptr, ptr %3, align 8
  %43 = getelementptr inbounds %"struct.mitsuba::jbuf_in_t", ptr %42, i32 0, i32 1
  %44 = load ptr, ptr %43, align 8
  %45 = getelementptr inbounds i8, ptr %44, i64 1
  store i8 -39, ptr %45, align 1
  store i64 2, ptr %4, align 8
  br label %50

46:                                               ; preds = %29
  %47 = landingpad { ptr, i32 }
          cleanup
  %48 = extractvalue { ptr, i32 } %47, 0
  store ptr %48, ptr %5, align 8
  %49 = extractvalue { ptr, i32 } %47, 1
  store i32 %49, ptr %6, align 4
  invoke void @__cxa_end_catch()
          to label %64 unwind label %70

50:                                               ; preds = %37, %34
  call void @__cxa_end_catch()
  br label %51

51:                                               ; preds = %50, %20
  %52 = load i64, ptr %4, align 8
  %53 = load ptr, ptr %2, align 8
  %54 = getelementptr inbounds %struct.jpeg_decompress_struct, ptr %53, i32 0, i32 6
  %55 = load ptr, ptr %54, align 8
  %56 = getelementptr inbounds %struct.jpeg_source_mgr, ptr %55, i32 0, i32 1
  store i64 %52, ptr %56, align 8
  %57 = load ptr, ptr %3, align 8
  %58 = getelementptr inbounds %"struct.mitsuba::jbuf_in_t", ptr %57, i32 0, i32 1
  %59 = load ptr, ptr %58, align 8
  %60 = load ptr, ptr %2, align 8
  %61 = getelementptr inbounds %struct.jpeg_decompress_struct, ptr %60, i32 0, i32 6
  %62 = load ptr, ptr %61, align 8
  %63 = getelementptr inbounds %struct.jpeg_source_mgr, ptr %62, i32 0, i32 0
  store ptr %59, ptr %63, align 8
  ret i32 1

64:                                               ; preds = %46
  br label %65

65:                                               ; preds = %64, %25
  %66 = load ptr, ptr %5, align 8
  %67 = load i32, ptr %6, align 4
  %68 = insertvalue { ptr, i32 } poison, ptr %66, 0
  %69 = insertvalue { ptr, i32 } %68, i32 %67, 1
  resume { ptr, i32 } %69

70:                                               ; preds = %46
  %71 = landingpad { ptr, i32 }
          catch ptr null
  %72 = extractvalue { ptr, i32 } %71, 0
  call void @__clang_call_terminate(ptr %72) #31
  unreachable
}