; Function Attrs: mustprogress uwtable
define internal noundef i32 @_ZN7mitsubaL22jpeg_fill_input_bufferEP22jpeg_decompress_struct(ptr nocapture noundef readonly %0) #0 personality ptr @__gxx_personality_v0 {
  %2 = getelementptr inbounds i8, ptr %0, i64 40
  %3 = load ptr, ptr %2, align 8
  %4 = getelementptr inbounds i8, ptr %3, i64 64
  %5 = load ptr, ptr %4, align 8
  %6 = getelementptr inbounds i8, ptr %3, i64 56
  %7 = load ptr, ptr %6, align 8
  %8 = load ptr, ptr %5, align 8
  %9 = getelementptr inbounds i8, ptr %8, i64 88
  %10 = load ptr, ptr %9, align 8
  invoke void %10(ptr noundef nonnull align 8 dereferenceable(16) %5, ptr noundef %7, i64 noundef 32768)
          to label %27 unwind label %11

11:                                               ; preds = %1
  %12 = landingpad { ptr, i32 }
          catch ptr @_ZTIN7mitsuba12EOFExceptionE
  %13 = extractvalue { ptr, i32 } %12, 1
  %14 = tail call i32 @llvm.eh.typeid.for(ptr nonnull @_ZTIN7mitsuba12EOFExceptionE) #36
  %15 = icmp eq i32 %13, %14
  br i1 %15, label %16, label %32

16:                                               ; preds = %11
  %17 = extractvalue { ptr, i32 } %12, 0
  %18 = tail call ptr @__cxa_begin_catch(ptr %17) #36
  %19 = getelementptr inbounds i8, ptr %18, i64 16
  %20 = load i64, ptr %19, align 8
  %21 = icmp eq i64 %20, 0
  br i1 %21, label %22, label %26

22:                                               ; preds = %16
  %23 = load ptr, ptr %6, align 8
  store i8 -1, ptr %23, align 1
  %24 = load ptr, ptr %6, align 8
  %25 = getelementptr inbounds i8, ptr %24, i64 1
  store i8 -39, ptr %25, align 1
  br label %26

26:                                               ; preds = %22, %16
  %.0 = phi i64 [ 2, %22 ], [ %20, %16 ]
  tail call void @__cxa_end_catch()
  br label %27

27:                                               ; preds = %1, %26
  %.1 = phi i64 [ %.0, %26 ], [ 32768, %1 ]
  %28 = load ptr, ptr %2, align 8
  %29 = getelementptr inbounds i8, ptr %28, i64 8
  store i64 %.1, ptr %29, align 8
  %30 = load ptr, ptr %6, align 8
  %31 = load ptr, ptr %2, align 8
  store ptr %30, ptr %31, align 8
  ret i32 1

32:                                               ; preds = %11
  resume { ptr, i32 } %12
}